; Function Attrs: mustprogress uwtable
define noundef i32 @_ZNK6casadi6Concat4evalEPPKdPPdPxS4_(ptr noundef nonnull align 8 dereferenceable(64) %0, ptr nocapture noundef readonly %1, ptr nocapture noundef readonly %2, ptr nocapture readnone %3, ptr nocapture readnone %4) unnamed_addr #3 align 2 {
  %6 = load ptr, ptr %2, align 8
  %7 = tail call noundef i64 @_ZNK6casadi6MXNode5n_depEv(ptr noundef nonnull align 8 dereferenceable(64) %0)
  %8 = icmp sgt i64 %7, 0
  br i1 %8, label %.lr.ph.i, label %_ZNK6casadi6Concat8eval_genIdEEiPKPKT_PKPS2_PxS7_.exit

.lr.ph.i:                                         ; preds = %5
  %9 = getelementptr inbounds i8, ptr %0, i64 32
  %10 = getelementptr inbounds i8, ptr %0, i64 40
  br label %11

11:                                               ; preds = %_ZSt4copyIPKdPdET0_T_S4_S3_.exit.i, %.lr.ph.i
  %.016.i = phi ptr [ %6, %.lr.ph.i ], [ %25, %_ZSt4copyIPKdPdET0_T_S4_S3_.exit.i ]
  %.01215.i = phi i64 [ 0, %.lr.ph.i ], [ %26, %_ZSt4copyIPKdPdET0_T_S4_S3_.exit.i ]
  %12 = load ptr, ptr %10, align 8
  %13 = load ptr, ptr %9, align 8
  %14 = ptrtoint ptr %12 to i64
  %15 = ptrtoint ptr %13 to i64
  %16 = sub i64 %14, %15
  %17 = ashr exact i64 %16, 3
  %.not.i.i.i.i = icmp ugt i64 %17, %.01215.i
  br i1 %.not.i.i.i.i, label %_ZNK6casadi6MXNode3depEx.exit.i, label %18

18:                                               ; preds = %11
  tail call void (ptr, ...) @_ZSt24__throw_out_of_range_fmtPKcz(ptr noundef nonnull @.str.27, i64 noundef %.01215.i, i64 noundef %17) #19
  unreachable

_ZNK6casadi6MXNode3depEx.exit.i:                  ; preds = %11
  %19 = getelementptr inbounds %"class.casadi::MX", ptr %13, i64 %.01215.i
  %20 = tail call noundef nonnull align 8 dereferenceable(8) ptr @_ZNK6casadi2MX8sparsityEv(ptr noundef nonnull align 8 dereferenceable(8) %19)
  %21 = tail call noundef i64 @_ZNK6casadi8Sparsity3nnzEv(ptr noundef nonnull align 8 dereferenceable(8) %20)
  %.not.i.i.i.i.i.i = icmp eq i64 %21, 0
  br i1 %.not.i.i.i.i.i.i, label %_ZSt4copyIPKdPdET0_T_S4_S3_.exit.i, label %22

22:                                               ; preds = %_ZNK6casadi6MXNode3depEx.exit.i
  %23 = getelementptr inbounds ptr, ptr %1, i64 %.01215.i
  %24 = load ptr, ptr %23, align 8
  %.idx.i = shl nsw i64 %21, 3
  tail call void @llvm.memmove.p0.p0.i64(ptr align 8 %.016.i, ptr align 8 %24, i64 %.idx.i, i1 false)
  br label %_ZSt4copyIPKdPdET0_T_S4_S3_.exit.i

_ZSt4copyIPKdPdET0_T_S4_S3_.exit.i:               ; preds = %22, %_ZNK6casadi6MXNode3depEx.exit.i
  %25 = getelementptr inbounds double, ptr %.016.i, i64 %21
  %26 = add nuw nsw i64 %.01215.i, 1
  %27 = tail call noundef i64 @_ZNK6casadi6MXNode5n_depEv(ptr noundef nonnull align 8 dereferenceable(64) %0)
  %28 = icmp slt i64 %26, %27
  br i1 %28, label %11, label %_ZNK6casadi6Concat8eval_genIdEEiPKPKT_PKPS2_PxS7_.exit, !llvm.loop !4

_ZNK6casadi6Concat8eval_genIdEEiPKPKT_PKPS2_PxS7_.exit: ; preds = %_ZSt4copyIPKdPdET0_T_S4_S3_.exit.i, %5
  ret i32 0
}